target datalayout = "e-m:e-p270:32:32-p271:32:32-p272:64:64-i64:64-i128:128-f80:128-n8:16:32:64-S128"
target triple = "x86_64-pc-linux-gnu"

; Function Attrs: inlinehint nounwind uwtable
define internal void @CopySmallPattern32b(ptr noundef %0, ptr noundef %1, i32 noundef %2, i64 noundef %3) #3 {
  %5 = alloca ptr, align 8
  %6 = alloca ptr, align 8
  %7 = alloca i32, align 4
  %8 = alloca i64, align 8
  %9 = alloca i32, align 4
  store ptr %0, ptr %5, align 8, !tbaa !11
  store ptr %1, ptr %6, align 8, !tbaa !11
  store i32 %2, ptr %7, align 4, !tbaa !13
  store i64 %3, ptr %8, align 8, !tbaa !8
  call void @llvm.lifetime.start.p0(i64 4, ptr %9) #6
  %10 = load ptr, ptr %6, align 8, !tbaa !11
  %11 = ptrtoint ptr %10 to i64
  %12 = and i64 %11, 4
  %13 = icmp ne i64 %12, 0
  br i1 %13, label %14, label %27

14:                                               ; preds = %4
  %15 = load ptr, ptr %5, align 8, !tbaa !11
  %16 = getelementptr inbounds nuw i32, ptr %15, i32 1
  store ptr %16, ptr %5, align 8, !tbaa !11
  %17 = load i32, ptr %15, align 4, !tbaa !13
  %18 = load ptr, ptr %6, align 8, !tbaa !11
  %19 = getelementptr inbounds nuw i32, ptr %18, i32 1
  store ptr %19, ptr %6, align 8, !tbaa !11
  store i32 %17, ptr %18, align 4, !tbaa !13
  %20 = load i64, ptr %8, align 8, !tbaa !8
  %21 = lshr i64 %20, 32
  %22 = load i64, ptr %8, align 8, !tbaa !8
  %23 = shl i64 %22, 32
  %24 = or i64 %21, %23
  store i64 %24, ptr %8, align 8, !tbaa !8
  %25 = load i32, ptr %7, align 4, !tbaa !13
  %26 = add nsw i32 %25, -1
  store i32 %26, ptr %7, align 4, !tbaa !13
  br label %27

27:                                               ; preds = %14, %4
  store i32 0, ptr %9, align 4, !tbaa !13
  br label %28

28:                                               ; preds = %39, %27
  %29 = load i32, ptr %9, align 4, !tbaa !13
  %30 = load i32, ptr %7, align 4, !tbaa !13
  %31 = ashr i32 %30, 1
  %32 = icmp slt i32 %29, %31
  br i1 %32, label %33, label %42

33:                                               ; preds = %28
  %34 = load i64, ptr %8, align 8, !tbaa !8
  %35 = load ptr, ptr %6, align 8, !tbaa !11
  %36 = load i32, ptr %9, align 4, !tbaa !13
  %37 = sext i32 %36 to i64
  %38 = getelementptr inbounds i64, ptr %35, i64 %37
  store i64 %34, ptr %38, align 8, !tbaa !8
  br label %39

39:                                               ; preds = %33
  %40 = load i32, ptr %9, align 4, !tbaa !13
  %41 = add nsw i32 %40, 1
  store i32 %41, ptr %9, align 4, !tbaa !13
  br label %28, !llvm.loop !166

42:                                               ; preds = %28
  %43 = load i32, ptr %7, align 4, !tbaa !13
  %44 = and i32 %43, 1
  %45 = icmp ne i32 %44, 0
  br i1 %45, label %46, label %58

46:                                               ; preds = %42
  %47 = load ptr, ptr %5, align 8, !tbaa !11
  %48 = load i32, ptr %9, align 4, !tbaa !13
  %49 = shl i32 %48, 1
  %50 = sext i32 %49 to i64
  %51 = getelementptr inbounds i32, ptr %47, i64 %50
  %52 = load i32, ptr %51, align 4, !tbaa !13
  %53 = load ptr, ptr %6, align 8, !tbaa !11
  %54 = load i32, ptr %9, align 4, !tbaa !13
  %55 = shl i32 %54, 1
  %56 = sext i32 %55 to i64
  %57 = getelementptr inbounds i32, ptr %53, i64 %56
  store i32 %52, ptr %57, align 4, !tbaa !13
  br label %58

58:                                               ; preds = %46, %42
  call void @llvm.lifetime.end.p0(i64 4, ptr %9) #6
  ret void
}

; Function Attrs: inlinehint nounwind uwtable
define internal void @CopyBlock32b(ptr noundef %0, i32 noundef %1, i32 noundef %2) #3 {
  %4 = alloca ptr, align 8
  %5 = alloca i32, align 4
  %6 = alloca i32, align 4
  %7 = alloca ptr, align 8
  %8 = alloca i64, align 8
  %9 = alloca i32, align 4
  store ptr %0, ptr %4, align 8, !tbaa !11
  store i32 %1, ptr %5, align 4, !tbaa !13
  store i32 %2, ptr %6, align 4, !tbaa !13
  call void @llvm.lifetime.start.p0(i64 8, ptr %7) #6
  %10 = load ptr, ptr %4, align 8, !tbaa !11
  %11 = load i32, ptr %5, align 4, !tbaa !13
  %12 = sext i32 %11 to i64
  %13 = sub i64 0, %12
  %14 = getelementptr inbounds i32, ptr %10, i64 %13
  store ptr %14, ptr %7, align 8, !tbaa !11
  %15 = load i32, ptr %5, align 4, !tbaa !13
  %16 = icmp sle i32 %15, 2
  br i1 %16, label %17, label %44

17:                                               ; preds = %3
  %18 = load i32, ptr %6, align 4, !tbaa !13
  %19 = icmp sge i32 %18, 4
  br i1 %19, label %20, label %44

20:                                               ; preds = %17
  %21 = load ptr, ptr %4, align 8, !tbaa !11
  %22 = ptrtoint ptr %21 to i64
  %23 = and i64 %22, 3
  %24 = icmp eq i64 %23, 0
  br i1 %24, label %25, label %44

25:                                               ; preds = %20
  call void @llvm.lifetime.start.p0(i64 8, ptr %8) #6
  %26 = load i32, ptr %5, align 4, !tbaa !13
  %27 = icmp eq i32 %26, 1
  br i1 %27, label %28, label %37

28:                                               ; preds = %25
  %29 = load ptr, ptr %7, align 8, !tbaa !11
  %30 = getelementptr inbounds i32, ptr %29, i64 0
  %31 = load i32, ptr %30, align 4, !tbaa !13
  %32 = zext i32 %31 to i64
  store i64 %32, ptr %8, align 8, !tbaa !8
  %33 = load i64, ptr %8, align 8, !tbaa !8
  %34 = shl i64 %33, 32
  %35 = load i64, ptr %8, align 8, !tbaa !8
  %36 = or i64 %35, %34
  store i64 %36, ptr %8, align 8, !tbaa !8
  br label %39

37:                                               ; preds = %25
  %38 = load ptr, ptr %7, align 8, !tbaa !11
  call void @llvm.memcpy.p0.p0.i64(ptr align 8 %8, ptr align 4 %38, i64 8, i1 false)
  br label %39

39:                                               ; preds = %37, %28
  %40 = load ptr, ptr %7, align 8, !tbaa !11
  %41 = load ptr, ptr %4, align 8, !tbaa !11
  %42 = load i32, ptr %6, align 4, !tbaa !13
  %43 = load i64, ptr %8, align 8, !tbaa !8
  call void @CopySmallPattern32b(ptr noundef %40, ptr noundef %41, i32 noundef %42, i64 noundef %43)
  call void @llvm.lifetime.end.p0(i64 8, ptr %8) #6
  br label %74

44:                                               ; preds = %20, %17, %3
  %45 = load i32, ptr %5, align 4, !tbaa !13
  %46 = load i32, ptr %6, align 4, !tbaa !13
  %47 = icmp sge i32 %45, %46
  br i1 %47, label %48, label %54

48:                                               ; preds = %44
  %49 = load ptr, ptr %4, align 8, !tbaa !11
  %50 = load ptr, ptr %7, align 8, !tbaa !11
  %51 = load i32, ptr %6, align 4, !tbaa !13
  %52 = sext i32 %51 to i64
  %53 = mul i64 %52, 4
  call void @llvm.memcpy.p0.p0.i64(ptr align 4 %49, ptr align 4 %50, i64 %53, i1 false)
  br label %73

54:                                               ; preds = %44
  call void @llvm.lifetime.start.p0(i64 4, ptr %9) #6
  store i32 0, ptr %9, align 4, !tbaa !13
  br label %55

55:                                               ; preds = %69, %54
  %56 = load i32, ptr %9, align 4, !tbaa !13
  %57 = load i32, ptr %6, align 4, !tbaa !13
  %58 = icmp slt i32 %56, %57
  br i1 %58, label %59, label %72

59:                                               ; preds = %55
  %60 = load ptr, ptr %7, align 8, !tbaa !11
  %61 = load i32, ptr %9, align 4, !tbaa !13
  %62 = sext i32 %61 to i64
  %63 = getelementptr inbounds i32, ptr %60, i64 %62
  %64 = load i32, ptr %63, align 4, !tbaa !13
  %65 = load ptr, ptr %4, align 8, !tbaa !11
  %66 = load i32, ptr %9, align 4, !tbaa !13
  %67 = sext i32 %66 to i64
  %68 = getelementptr inbounds i32, ptr %65, i64 %67
  store i32 %64, ptr %68, align 4, !tbaa !13
  br label %69

69:                                               ; preds = %59
  %70 = load i32, ptr %9, align 4, !tbaa !13
  %71 = add nsw i32 %70, 1
  store i32 %71, ptr %9, align 4, !tbaa !13
  br label %55, !llvm.loop !165

72:                                               ; preds = %55
  call void @llvm.lifetime.end.p0(i64 4, ptr %9) #6
  br label %73

73:                                               ; preds = %72, %48
  br label %74

74:                                               ; preds = %73, %39
  call void @llvm.lifetime.end.p0(i64 8, ptr %7) #6
  ret void
}