; Function Attrs: inlinehint nofree norecurse nosync nounwind memory(argmem: readwrite) uwtable
define internal fastcc void @CopyBlock32b(ptr noundef %0, i32 noundef %1, i32 noundef %2) unnamed_addr #6 {
  %4 = sext i32 %1 to i64
  %5 = sub nsw i64 0, %4
  %6 = getelementptr inbounds i32, ptr %0, i64 %5
  %7 = icmp slt i32 %1, 3
  %8 = icmp sgt i32 %2, 3
  %or.cond = and i1 %7, %8
  %9 = ptrtoint ptr %0 to i64
  %10 = and i64 %9, 3
  %11 = icmp eq i64 %10, 0
  %or.cond31 = and i1 %11, %or.cond
  br i1 %or.cond31, label %12, label %38

12:                                               ; preds = %3
  %13 = icmp eq i32 %1, 1
  br i1 %13, label %14, label %19

14:                                               ; preds = %12
  %15 = load i32, ptr %6, align 4, !tbaa !6
  %16 = zext i32 %15 to i64
  %17 = shl nuw i64 %16, 32
  %18 = or disjoint i64 %17, %16
  br label %21

19:                                               ; preds = %12
  %.0.copyload = load i64, ptr %6, align 4
  %20 = trunc i64 %.0.copyload to i32
  br label %21

21:                                               ; preds = %19, %14
  %22 = phi i32 [ %15, %14 ], [ %20, %19 ]
  %.026 = phi i64 [ %18, %14 ], [ %.0.copyload, %19 ]
  %23 = and i64 %9, 4
  %.not.i = icmp eq i64 %23, 0
  br i1 %.not.i, label %.lr.ph.preheader.i, label %24

24:                                               ; preds = %21
  %25 = getelementptr inbounds nuw i8, ptr %6, i64 4
  %26 = getelementptr inbounds nuw i8, ptr %0, i64 4
  store i32 %22, ptr %0, align 4, !tbaa !6
  %27 = tail call i64 @llvm.fshl.i64(i64 %.026, i64 %.026, i64 32)
  %28 = add nsw i32 %2, -1
  br label %.lr.ph.preheader.i

.lr.ph.preheader.i:                               ; preds = %24, %21
  %.019.i = phi ptr [ %25, %24 ], [ %6, %21 ]
  %.018.i = phi ptr [ %26, %24 ], [ %0, %21 ]
  %.017.i = phi i32 [ %28, %24 ], [ %2, %21 ]
  %.016.i = phi i64 [ %27, %24 ], [ %.026, %21 ]
  %29 = lshr i32 %.017.i, 1
  %wide.trip.count.i = zext nneg i32 %29 to i64
  br label %.lr.ph.i

.lr.ph.i:                                         ; preds = %.lr.ph.i, %.lr.ph.preheader.i
  %indvars.iv.i = phi i64 [ 0, %.lr.ph.preheader.i ], [ %indvars.iv.next.i, %.lr.ph.i ]
  %30 = getelementptr inbounds nuw i64, ptr %.018.i, i64 %indvars.iv.i
  store i64 %.016.i, ptr %30, align 8, !tbaa !108
  %indvars.iv.next.i = add nuw nsw i64 %indvars.iv.i, 1
  %exitcond.not.i = icmp eq i64 %indvars.iv.next.i, %wide.trip.count.i
  br i1 %exitcond.not.i, label %._crit_edge.i, label %.lr.ph.i, !llvm.loop !168

._crit_edge.i:                                    ; preds = %.lr.ph.i
  %31 = and i32 %.017.i, 1
  %.not20.i = icmp eq i32 %31, 0
  br i1 %.not20.i, label %CopySmallPattern32b.exit, label %32

32:                                               ; preds = %._crit_edge.i
  %33 = and i32 %.017.i, -2
  %34 = zext nneg i32 %33 to i64
  %35 = getelementptr inbounds nuw i32, ptr %.019.i, i64 %34
  %36 = load i32, ptr %35, align 4, !tbaa !6
  %37 = getelementptr inbounds nuw i32, ptr %.018.i, i64 %34
  store i32 %36, ptr %37, align 4, !tbaa !6
  br label %CopySmallPattern32b.exit

38:                                               ; preds = %3
  %.not = icmp slt i32 %1, %2
  br i1 %.not, label %.preheader, label %40

.preheader:                                       ; preds = %38
  %39 = icmp sgt i32 %2, 0
  br i1 %39, label %.lr.ph.preheader, label %CopySmallPattern32b.exit

.lr.ph.preheader:                                 ; preds = %.preheader
  %wide.trip.count = zext nneg i32 %2 to i64
  br label %.lr.ph

40:                                               ; preds = %38
  %41 = sext i32 %2 to i64
  %42 = shl nsw i64 %41, 2
  tail call void @llvm.memcpy.p0.p0.i64(ptr align 4 %0, ptr align 4 %6, i64 %42, i1 false)
  br label %CopySmallPattern32b.exit

.lr.ph:                                           ; preds = %.lr.ph.preheader, %.lr.ph
  %indvars.iv = phi i64 [ 0, %.lr.ph.preheader ], [ %indvars.iv.next, %.lr.ph ]
  %43 = getelementptr inbounds nuw i32, ptr %6, i64 %indvars.iv
  %44 = load i32, ptr %43, align 4, !tbaa !6
  %45 = getelementptr inbounds nuw i32, ptr %0, i64 %indvars.iv
  store i32 %44, ptr %45, align 4, !tbaa !6
  %indvars.iv.next = add nuw nsw i64 %indvars.iv, 1
  %exitcond.not = icmp eq i64 %indvars.iv.next, %wide.trip.count
  br i1 %exitcond.not, label %CopySmallPattern32b.exit, label %.lr.ph, !llvm.loop !169

CopySmallPattern32b.exit:                         ; preds = %.lr.ph, %.preheader, %32, %._crit_edge.i, %40
  ret void
}